target datalayout = "e-m:e-p270:32:32-p271:32:32-p272:64:64-i64:64-i128:128-f80:128-n8:16:32:64-S128"
target triple = "x86_64-pc-linux-gnu"

%"struct.folly::None" = type { i8 }
%"struct.folly::unsafe_default_initialized_cv" = type { i8 }
%"class.folly::IPAddressV6" = type <{ %"union.folly::IPAddressV6::AddressStorage", i16, [2 x i8] }>
%"union.folly::IPAddressV6::AddressStorage" = type { %struct.in6_addr }
%struct.in6_addr = type { %union.anon }
%union.anon = type { [4 x i32] }
%"class.folly::MacAddress" = type { [8 x i8] }
%"struct.std::array" = type { [16 x i8] }
%"class.folly::Optional" = type { %"struct.folly::Optional<folly::MacAddress>::StorageTriviallyDestructible" }
%"struct.folly::Optional<folly::MacAddress>::StorageTriviallyDestructible" = type { %union.anon.9, i8 }
%union.anon.9 = type { %"class.folly::MacAddress" }
%"struct.std::array.10" = type { [6 x i8] }
%"class.folly::Range.11" = type { ptr, ptr }
%"class.folly::Range.12" = type { ptr, ptr }

@_ZN5follyL4noneE = internal constant %"struct.folly::None" undef, align 1
@_ZN5folly26unsafe_default_initializedE = linkonce_odr constant %"struct.folly::unsafe_default_initialized_cv" undef, comdat, align 1
@.str.8 = private unnamed_addr constant [52 x i8] c"array::at: __n (which is %zu) >= _Nm (which is %zu)\00", align 1

; Function Attrs: mustprogress nounwind willreturn memory(none) uwtable
define linkonce_odr noundef i64 @_ZNKSt5arrayIhLm6EE4sizeEv(ptr noundef nonnull align 1 dereferenceable(6) %0) #25 comdat align 2 {
  %2 = alloca ptr, align 8
  store ptr %0, ptr %2, align 8, !tbaa !174
  ret i64 6
}

; Function Attrs: mustprogress uwtable
define linkonce_odr noundef nonnull align 1 dereferenceable(1) ptr @_ZNSt5arrayIhLm6EE2atEm(ptr noundef nonnull align 1 dereferenceable(6) %0, i64 noundef %1) #0 comdat align 2 {
  %3 = alloca ptr, align 8
  %4 = alloca i64, align 8
  store ptr %0, ptr %3, align 8, !tbaa !174
  store i64 %1, ptr %4, align 8, !tbaa !12
  %5 = load ptr, ptr %3, align 8
  %6 = load i64, ptr %4, align 8, !tbaa !12
  %7 = icmp uge i64 %6, 6
  br i1 %7, label %8, label %10

8:                                                ; preds = %2
  %9 = load i64, ptr %4, align 8, !tbaa !12
  call void (ptr, ...) @_ZSt24__throw_out_of_range_fmtPKcz(ptr noundef @.str.8, i64 noundef %9, i64 noundef 6) #32
  unreachable

10:                                               ; preds = %2
  %11 = getelementptr inbounds nuw %"struct.std::array.10", ptr %5, i32 0, i32 0
  %12 = load i64, ptr %4, align 8, !tbaa !12
  %13 = call noundef nonnull align 1 dereferenceable(1) ptr @_ZNSt14__array_traitsIhLm6EE6_S_refERA6_Khm(ptr noundef nonnull align 1 dereferenceable(6) %11, i64 noundef %12) #13
  ret ptr %13
}

; Function Attrs: mustprogress nounwind willreturn memory(none) uwtable
define linkonce_odr noundef zeroext i1 @_ZNKSt5arrayIhLm6EE5emptyEv(ptr noundef nonnull align 1 dereferenceable(6) %0) #25 comdat align 2 {
  %2 = alloca ptr, align 8
  store ptr %0, ptr %2, align 8, !tbaa !174
  %3 = load ptr, ptr %2, align 8
  %4 = call noundef i64 @_ZNKSt5arrayIhLm6EE4sizeEv(ptr noundef nonnull align 1 dereferenceable(6) %3) #31
  %5 = icmp eq i64 %4, 0
  ret i1 %5
}

; Function Attrs: alwaysinline mustprogress nounwind uwtable
define linkonce_odr hidden noundef signext i8 @_ZNK5folly29unsafe_default_initialized_cvcvT_IcEEv(ptr noundef nonnull align 1 dereferenceable(1) %0) #12 comdat align 2 {
  %2 = alloca ptr, align 8
  store ptr %0, ptr %2, align 8, !tbaa !172
  ret i8 0
}

; Function Attrs: mustprogress nounwind uwtable
define linkonce_odr void @_ZN5folly8OptionalINS_10MacAddressEE9constructIJS1_EEEvDpOT_(ptr noundef nonnull align 1 dereferenceable(9) %0, ptr noundef nonnull align 1 dereferenceable(8) %1) #3 comdat align 2 {
  %3 = alloca ptr, align 8
  %4 = alloca ptr, align 8
  %5 = alloca ptr, align 8
  store ptr %0, ptr %3, align 8, !tbaa !164
  store ptr %1, ptr %4, align 8, !tbaa !162
  %6 = load ptr, ptr %3, align 8
  call void @llvm.lifetime.start.p0(i64 8, ptr %5) #13
  %7 = getelementptr inbounds nuw %"class.folly::Optional", ptr %6, i32 0, i32 0
  %8 = getelementptr inbounds nuw %"struct.folly::Optional<folly::MacAddress>::StorageTriviallyDestructible", ptr %7, i32 0, i32 0
  store ptr %8, ptr %5, align 8, !tbaa !54
  %9 = load ptr, ptr %5, align 8, !tbaa !54
  %10 = load ptr, ptr %4, align 8, !tbaa !162
  call void @llvm.memcpy.p0.p0.i64(ptr align 1 %9, ptr align 1 %10, i64 8, i1 false), !tbaa.struct !161
  %11 = getelementptr inbounds nuw %"class.folly::Optional", ptr %6, i32 0, i32 0
  %12 = getelementptr inbounds nuw %"struct.folly::Optional<folly::MacAddress>::StorageTriviallyDestructible", ptr %11, i32 0, i32 1
  store i8 1, ptr %12, align 1, !tbaa !186
  call void @llvm.lifetime.end.p0(i64 8, ptr %5) #13
  ret void
}

; Function Attrs: mustprogress nounwind uwtable
define linkonce_odr void @_ZN5folly10MacAddressC2Ev(ptr noundef nonnull align 1 dereferenceable(8) %0) unnamed_addr #3 comdat align 2 {
  %2 = alloca ptr, align 8
  store ptr %0, ptr %2, align 8, !tbaa !162
  %3 = load ptr, ptr %2, align 8
  %4 = getelementptr inbounds nuw %"class.folly::MacAddress", ptr %3, i32 0, i32 0
  call void @llvm.memset.p0.i64(ptr align 1 %4, i8 0, i64 8, i1 false)
  ret void
}

; Function Attrs: mustprogress nounwind uwtable
define linkonce_odr noundef ptr @_ZNK5folly5RangeIPhE3endEv(ptr noundef nonnull align 8 dereferenceable(16) %0) #3 comdat align 2 {
  %2 = alloca ptr, align 8
  store ptr %0, ptr %2, align 8, !tbaa !178
  %3 = load ptr, ptr %2, align 8
  %4 = getelementptr inbounds nuw %"class.folly::Range.12", ptr %3, i32 0, i32 1
  %5 = load ptr, ptr %4, align 8, !tbaa !185
  ret ptr %5
}

; Function Attrs: mustprogress nounwind uwtable
define linkonce_odr noundef ptr @_ZNK5folly5RangeIPhE5beginEv(ptr noundef nonnull align 8 dereferenceable(16) %0) #3 comdat align 2 {
  %2 = alloca ptr, align 8
  store ptr %0, ptr %2, align 8, !tbaa !178
  %3 = load ptr, ptr %2, align 8
  %4 = getelementptr inbounds nuw %"class.folly::Range.12", ptr %3, i32 0, i32 0
  %5 = load ptr, ptr %4, align 8, !tbaa !183
  ret ptr %5
}

; Function Attrs: mustprogress uwtable
define linkonce_odr void @_ZN5folly5RangeIPhEC2IhLm6EvEERSt5arrayIT_XT0_EE(ptr noundef nonnull align 8 dereferenceable(16) %0, ptr noundef nonnull align 1 dereferenceable(6) %1) unnamed_addr #0 comdat align 2 {
  %3 = alloca ptr, align 8
  %4 = alloca ptr, align 8
  store ptr %0, ptr %3, align 8, !tbaa !178
  store ptr %1, ptr %4, align 8, !tbaa !174
  %5 = load ptr, ptr %3, align 8
  %6 = getelementptr inbounds nuw %"class.folly::Range.12", ptr %5, i32 0, i32 0
  %7 = load ptr, ptr %4, align 8, !tbaa !174
  %8 = call noundef zeroext i1 @_ZNKSt5arrayIhLm6EE5emptyEv(ptr noundef nonnull align 1 dereferenceable(6) %7) #31
  br i1 %8, label %9, label %10

9:                                                ; preds = %2
  br label %13

10:                                               ; preds = %2
  %11 = load ptr, ptr %4, align 8, !tbaa !174
  %12 = call noundef nonnull align 1 dereferenceable(1) ptr @_ZNSt5arrayIhLm6EE2atEm(ptr noundef nonnull align 1 dereferenceable(6) %11, i64 noundef 0)
  br label %13

13:                                               ; preds = %10, %9
  %14 = phi ptr [ null, %9 ], [ %12, %10 ]
  store ptr %14, ptr %6, align 8, !tbaa !183
  %15 = getelementptr inbounds nuw %"class.folly::Range.12", ptr %5, i32 0, i32 1
  %16 = load ptr, ptr %4, align 8, !tbaa !174
  %17 = call noundef zeroext i1 @_ZNKSt5arrayIhLm6EE5emptyEv(ptr noundef nonnull align 1 dereferenceable(6) %16) #31
  br i1 %17, label %18, label %19

18:                                               ; preds = %13
  br label %23

19:                                               ; preds = %13
  %20 = load ptr, ptr %4, align 8, !tbaa !174
  %21 = call noundef nonnull align 1 dereferenceable(1) ptr @_ZNSt5arrayIhLm6EE2atEm(ptr noundef nonnull align 1 dereferenceable(6) %20, i64 noundef 0)
  %22 = getelementptr inbounds nuw i8, ptr %21, i64 6
  br label %23

23:                                               ; preds = %19, %18
  %24 = phi ptr [ null, %18 ], [ %22, %19 ]
  store ptr %24, ptr %15, align 8, !tbaa !185
  ret void
}

; Function Attrs: mustprogress nounwind uwtable
define linkonce_odr noundef nonnull align 1 dereferenceable(1) ptr @_ZNSt14__array_traitsIhLm6EE6_S_refERA6_Khm(ptr noundef nonnull align 1 dereferenceable(6) %0, i64 noundef %1) #3 comdat align 2 {
  %3 = alloca ptr, align 8
  %4 = alloca i64, align 8
  store ptr %0, ptr %3, align 8, !tbaa !28
  store i64 %1, ptr %4, align 8, !tbaa !12
  %5 = load ptr, ptr %3, align 8, !tbaa !28
  %6 = load i64, ptr %4, align 8, !tbaa !12
  %7 = getelementptr inbounds nuw [6 x i8], ptr %5, i64 0, i64 %6
  ret ptr %7
}

; Function Attrs: noinline noreturn nounwind uwtable
define linkonce_odr hidden void @__clang_call_terminate(ptr noundef %0) #5 comdat {
  %2 = call ptr @__cxa_begin_catch(ptr %0) #13
  call void @_ZSt9terminatev() #34
  unreachable
}

; Function Attrs: mustprogress nounwind uwtable
define linkonce_odr void @_ZN5folly8OptionalINS_10MacAddressEE28StorageTriviallyDestructibleC2Ev(ptr noundef nonnull align 1 dereferenceable(9) %0) unnamed_addr #3 comdat align 2 {
  %2 = alloca ptr, align 8
  store ptr %0, ptr %2, align 8, !tbaa !168
  %3 = load ptr, ptr %2, align 8
  %4 = getelementptr inbounds nuw %"struct.folly::Optional<folly::MacAddress>::StorageTriviallyDestructible", ptr %3, i32 0, i32 0
  %5 = call noundef signext i8 @_ZNK5folly29unsafe_default_initialized_cvcvT_IcEEv(ptr noundef nonnull align 1 dereferenceable(1) @_ZN5folly26unsafe_default_initializedE) #13
  store i8 %5, ptr %4, align 1, !tbaa !22
  %6 = getelementptr inbounds nuw %"struct.folly::Optional<folly::MacAddress>::StorageTriviallyDestructible", ptr %3, i32 0, i32 1
  store i8 0, ptr %6, align 1, !tbaa !170
  ret void
}

; Function Attrs: mustprogress nounwind uwtable
define linkonce_odr noundef nonnull align 1 dereferenceable(1) ptr @_ZNSt14__array_traitsIhLm16EE6_S_refERA16_Khm(ptr noundef nonnull align 1 dereferenceable(16) %0, i64 noundef %1) #3 comdat align 2 {
  %3 = alloca ptr, align 8
  %4 = alloca i64, align 8
  store ptr %0, ptr %3, align 8, !tbaa !28
  store i64 %1, ptr %4, align 8, !tbaa !12
  %5 = load ptr, ptr %3, align 8, !tbaa !28
  %6 = load i64, ptr %4, align 8, !tbaa !12
  %7 = getelementptr inbounds nuw [16 x i8], ptr %5, i64 0, i64 %6
  ret ptr %7
}

; Function Attrs: mustprogress nounwind uwtable
define linkonce_odr void @_ZN5folly8OptionalINS_10MacAddressEEC2EOS1_(ptr noundef nonnull align 1 dereferenceable(9) %0, ptr noundef nonnull align 1 dereferenceable(8) %1) unnamed_addr #3 comdat align 2 personality ptr @__gxx_personality_v0 {
  %3 = alloca ptr, align 8
  %4 = alloca ptr, align 8
  store ptr %0, ptr %3, align 8, !tbaa !164
  store ptr %1, ptr %4, align 8, !tbaa !162
  %5 = load ptr, ptr %3, align 8
  %6 = getelementptr inbounds nuw %"class.folly::Optional", ptr %5, i32 0, i32 0
  invoke void @_ZN5folly8OptionalINS_10MacAddressEE28StorageTriviallyDestructibleC2Ev(ptr noundef nonnull align 1 dereferenceable(9) %6)
          to label %7 unwind label %10

7:                                                ; preds = %2
  %8 = load ptr, ptr %4, align 8, !tbaa !162
  invoke void @_ZN5folly8OptionalINS_10MacAddressEE9constructIJS1_EEEvDpOT_(ptr noundef nonnull align 1 dereferenceable(9) %5, ptr noundef nonnull align 1 dereferenceable(8) %8)
          to label %9 unwind label %10

9:                                                ; preds = %7
  ret void

10:                                               ; preds = %7, %2
  %11 = landingpad { ptr, i32 }
          catch ptr null
  %12 = extractvalue { ptr, i32 } %11, 0
  call void @__clang_call_terminate(ptr %12) #34
  unreachable
}

; Function Attrs: mustprogress uwtable
define linkonce_odr i64 @_ZN5folly10MacAddress10fromBinaryENS_5RangeIPKhEE(ptr %0, ptr %1) #0 comdat align 2 {
  %3 = alloca %"class.folly::MacAddress", align 1
  %4 = alloca %"class.folly::Range.11", align 8
  %5 = alloca %"class.folly::Range.11", align 8
  %6 = getelementptr inbounds nuw { ptr, ptr }, ptr %4, i32 0, i32 0
  store ptr %0, ptr %6, align 8
  %7 = getelementptr inbounds nuw { ptr, ptr }, ptr %4, i32 0, i32 1
  store ptr %1, ptr %7, align 8
  call void @_ZN5folly10MacAddressC2Ev(ptr noundef nonnull align 1 dereferenceable(8) %3)
  call void @llvm.memcpy.p0.p0.i64(ptr align 8 %5, ptr align 8 %4, i64 16, i1 false), !tbaa.struct !83
  %8 = getelementptr inbounds nuw { ptr, ptr }, ptr %5, i32 0, i32 0
  %9 = load ptr, ptr %8, align 8
  %10 = getelementptr inbounds nuw { ptr, ptr }, ptr %5, i32 0, i32 1
  %11 = load ptr, ptr %10, align 8
  call void @_ZN5folly10MacAddress13setFromBinaryENS_5RangeIPKhEE(ptr noundef nonnull align 1 dereferenceable(8) %3, ptr %9, ptr %11)
  %12 = getelementptr inbounds nuw %"class.folly::MacAddress", ptr %3, i32 0, i32 0
  %13 = load i64, ptr %12, align 1
  ret i64 %13
}

; Function Attrs: mustprogress uwtable
define linkonce_odr void @_ZN5folly5RangeIPKhEC2IPhTnNSt9enable_ifIXaantsr3std7is_sameIS2_T_EE5valuesr3std14is_convertibleIS7_S2_EE5valueEiE4typeELi0EEERKNS0_IS7_EE(ptr noundef nonnull align 8 dereferenceable(16) %0, ptr noundef nonnull align 8 dereferenceable(16) %1) unnamed_addr #0 comdat align 2 {
  %3 = alloca ptr, align 8
  %4 = alloca ptr, align 8
  store ptr %0, ptr %3, align 8, !tbaa !176
  store ptr %1, ptr %4, align 8, !tbaa !178
  %5 = load ptr, ptr %3, align 8
  %6 = getelementptr inbounds nuw %"class.folly::Range.11", ptr %5, i32 0, i32 0
  %7 = load ptr, ptr %4, align 8, !tbaa !178
  %8 = call noundef ptr @_ZNK5folly5RangeIPhE5beginEv(ptr noundef nonnull align 8 dereferenceable(16) %7)
  store ptr %8, ptr %6, align 8, !tbaa !180
  %9 = getelementptr inbounds nuw %"class.folly::Range.11", ptr %5, i32 0, i32 1
  %10 = load ptr, ptr %4, align 8, !tbaa !178
  %11 = call noundef ptr @_ZNK5folly5RangeIPhE3endEv(ptr noundef nonnull align 8 dereferenceable(16) %10)
  store ptr %11, ptr %9, align 8, !tbaa !182
  ret void
}

; Function Attrs: mustprogress uwtable
define linkonce_odr { ptr, ptr } @_ZN5folly5rangeIhLm6EEENS_5RangeIPT_EERSt5arrayIS2_XT0_EE(ptr noundef nonnull align 1 dereferenceable(6) %0) #0 comdat {
  %2 = alloca %"class.folly::Range.12", align 8
  %3 = alloca ptr, align 8
  store ptr %0, ptr %3, align 8, !tbaa !174
  %4 = load ptr, ptr %3, align 8, !tbaa !174
  call void @_ZN5folly5RangeIPhEC2IhLm6EvEERSt5arrayIT_XT0_EE(ptr noundef nonnull align 8 dereferenceable(16) %2, ptr noundef nonnull align 1 dereferenceable(6) %4)
  %5 = load { ptr, ptr }, ptr %2, align 8
  ret { ptr, ptr } %5
}

; Function Attrs: mustprogress nounwind uwtable
define linkonce_odr noundef nonnull align 1 dereferenceable(1) ptr @_ZNSt5arrayIhLm6EEixEm(ptr noundef nonnull align 1 dereferenceable(6) %0, i64 noundef %1) #3 comdat align 2 {
  %3 = alloca ptr, align 8
  %4 = alloca i64, align 8
  store ptr %0, ptr %3, align 8, !tbaa !174
  store i64 %1, ptr %4, align 8, !tbaa !12
  %5 = load ptr, ptr %3, align 8
  %6 = getelementptr inbounds nuw %"struct.std::array.10", ptr %5, i32 0, i32 0
  %7 = load i64, ptr %4, align 8, !tbaa !12
  %8 = call noundef nonnull align 1 dereferenceable(1) ptr @_ZNSt14__array_traitsIhLm6EE6_S_refERA6_Khm(ptr noundef nonnull align 1 dereferenceable(6) %6, i64 noundef %7) #13
  ret ptr %8
}

; Function Attrs: mustprogress nounwind uwtable
define linkonce_odr void @_ZN5folly8OptionalINS_10MacAddressEEC2ERKNS_4NoneE(ptr noundef nonnull align 1 dereferenceable(9) %0, ptr noundef nonnull align 1 dereferenceable(1) %1) unnamed_addr #3 comdat align 2 personality ptr @__gxx_personality_v0 {
  %3 = alloca ptr, align 8
  %4 = alloca ptr, align 8
  store ptr %0, ptr %3, align 8, !tbaa !164
  store ptr %1, ptr %4, align 8, !tbaa !166
  %5 = load ptr, ptr %3, align 8
  %6 = getelementptr inbounds nuw %"class.folly::Optional", ptr %5, i32 0, i32 0
  invoke void @_ZN5folly8OptionalINS_10MacAddressEE28StorageTriviallyDestructibleC2Ev(ptr noundef nonnull align 1 dereferenceable(9) %6)
          to label %7 unwind label %8

7:                                                ; preds = %2
  ret void

8:                                                ; preds = %2
  %9 = landingpad { ptr, i32 }
          catch ptr null
  %10 = extractvalue { ptr, i32 } %9, 0
  call void @__clang_call_terminate(ptr %10) #34
  unreachable
}

; Function Attrs: mustprogress nounwind uwtable
define linkonce_odr noundef nonnull align 1 dereferenceable(1) ptr @_ZNKSt5arrayIhLm16EEixEm(ptr noundef nonnull align 1 dereferenceable(16) %0, i64 noundef %1) #3 comdat align 2 {
  %3 = alloca ptr, align 8
  %4 = alloca i64, align 8
  store ptr %0, ptr %3, align 8, !tbaa !157
  store i64 %1, ptr %4, align 8, !tbaa !12
  %5 = load ptr, ptr %3, align 8
  %6 = getelementptr inbounds nuw %"struct.std::array", ptr %5, i32 0, i32 0
  %7 = load i64, ptr %4, align 8, !tbaa !12
  %8 = call noundef nonnull align 1 dereferenceable(1) ptr @_ZNSt14__array_traitsIhLm16EE6_S_refERA16_Khm(ptr noundef nonnull align 1 dereferenceable(16) %6, i64 noundef %7) #13
  ret ptr %8
}

; Function Attrs: mustprogress uwtable
define void @_ZNK5folly11IPAddressV622getMacAddressFromEUI64Ev(ptr dead_on_unwind noalias writable sret(%"class.folly::Optional") align 1 %0, ptr noundef nonnull align 4 dereferenceable(18) %1) #0 align 2 {
  %3 = alloca ptr, align 8
  %4 = alloca ptr, align 8
  %5 = alloca %"struct.std::array.10", align 1
  %6 = alloca %"class.folly::MacAddress", align 1
  %7 = alloca %"class.folly::Range.11", align 8
  %8 = alloca %"class.folly::Range.12", align 8
  store ptr %0, ptr %3, align 8
  store ptr %1, ptr %4, align 8, !tbaa !7
  %9 = load ptr, ptr %4, align 8
  %10 = getelementptr inbounds nuw %"class.folly::IPAddressV6", ptr %9, i32 0, i32 0
  %11 = call noundef nonnull align 1 dereferenceable(1) ptr @_ZNKSt5arrayIhLm16EEixEm(ptr noundef nonnull align 1 dereferenceable(16) %10, i64 noundef 11) #13
  %12 = load i8, ptr %11, align 1, !tbaa !22
  %13 = zext i8 %12 to i32
  %14 = icmp eq i32 %13, 255
  br i1 %14, label %15, label %21

15:                                               ; preds = %2
  %16 = getelementptr inbounds nuw %"class.folly::IPAddressV6", ptr %9, i32 0, i32 0
  %17 = call noundef nonnull align 1 dereferenceable(1) ptr @_ZNKSt5arrayIhLm16EEixEm(ptr noundef nonnull align 1 dereferenceable(16) %16, i64 noundef 12) #13
  %18 = load i8, ptr %17, align 1, !tbaa !22
  %19 = zext i8 %18 to i32
  %20 = icmp eq i32 %19, 254
  br i1 %20, label %22, label %21

21:                                               ; preds = %15, %2
  call void @_ZN5folly8OptionalINS_10MacAddressEEC2ERKNS_4NoneE(ptr noundef nonnull align 1 dereferenceable(9) %0, ptr noundef nonnull align 1 dereferenceable(1) @_ZN5follyL4noneE) #13
  br label %61

22:                                               ; preds = %15
  call void @llvm.lifetime.start.p0(i64 6, ptr %5) #13
  %23 = getelementptr inbounds nuw %"class.folly::IPAddressV6", ptr %9, i32 0, i32 0
  %24 = call noundef nonnull align 1 dereferenceable(1) ptr @_ZNKSt5arrayIhLm16EEixEm(ptr noundef nonnull align 1 dereferenceable(16) %23, i64 noundef 8) #13
  %25 = load i8, ptr %24, align 1, !tbaa !22
  %26 = zext i8 %25 to i32
  %27 = xor i32 %26, 2
  %28 = trunc i32 %27 to i8
  %29 = call noundef nonnull align 1 dereferenceable(1) ptr @_ZNSt5arrayIhLm6EEixEm(ptr noundef nonnull align 1 dereferenceable(6) %5, i64 noundef 0) #13
  store i8 %28, ptr %29, align 1, !tbaa !22
  %30 = getelementptr inbounds nuw %"class.folly::IPAddressV6", ptr %9, i32 0, i32 0
  %31 = call noundef nonnull align 1 dereferenceable(1) ptr @_ZNKSt5arrayIhLm16EEixEm(ptr noundef nonnull align 1 dereferenceable(16) %30, i64 noundef 9) #13
  %32 = load i8, ptr %31, align 1, !tbaa !22
  %33 = call noundef nonnull align 1 dereferenceable(1) ptr @_ZNSt5arrayIhLm6EEixEm(ptr noundef nonnull align 1 dereferenceable(6) %5, i64 noundef 1) #13
  store i8 %32, ptr %33, align 1, !tbaa !22
  %34 = getelementptr inbounds nuw %"class.folly::IPAddressV6", ptr %9, i32 0, i32 0
  %35 = call noundef nonnull align 1 dereferenceable(1) ptr @_ZNKSt5arrayIhLm16EEixEm(ptr noundef nonnull align 1 dereferenceable(16) %34, i64 noundef 10) #13
  %36 = load i8, ptr %35, align 1, !tbaa !22
  %37 = call noundef nonnull align 1 dereferenceable(1) ptr @_ZNSt5arrayIhLm6EEixEm(ptr noundef nonnull align 1 dereferenceable(6) %5, i64 noundef 2) #13
  store i8 %36, ptr %37, align 1, !tbaa !22
  %38 = getelementptr inbounds nuw %"class.folly::IPAddressV6", ptr %9, i32 0, i32 0
  %39 = call noundef nonnull align 1 dereferenceable(1) ptr @_ZNKSt5arrayIhLm16EEixEm(ptr noundef nonnull align 1 dereferenceable(16) %38, i64 noundef 13) #13
  %40 = load i8, ptr %39, align 1, !tbaa !22
  %41 = call noundef nonnull align 1 dereferenceable(1) ptr @_ZNSt5arrayIhLm6EEixEm(ptr noundef nonnull align 1 dereferenceable(6) %5, i64 noundef 3) #13
  store i8 %40, ptr %41, align 1, !tbaa !22
  %42 = getelementptr inbounds nuw %"class.folly::IPAddressV6", ptr %9, i32 0, i32 0
  %43 = call noundef nonnull align 1 dereferenceable(1) ptr @_ZNKSt5arrayIhLm16EEixEm(ptr noundef nonnull align 1 dereferenceable(16) %42, i64 noundef 14) #13
  %44 = load i8, ptr %43, align 1, !tbaa !22
  %45 = call noundef nonnull align 1 dereferenceable(1) ptr @_ZNSt5arrayIhLm6EEixEm(ptr noundef nonnull align 1 dereferenceable(6) %5, i64 noundef 4) #13
  store i8 %44, ptr %45, align 1, !tbaa !22
  %46 = getelementptr inbounds nuw %"class.folly::IPAddressV6", ptr %9, i32 0, i32 0
  %47 = call noundef nonnull align 1 dereferenceable(1) ptr @_ZNKSt5arrayIhLm16EEixEm(ptr noundef nonnull align 1 dereferenceable(16) %46, i64 noundef 15) #13
  %48 = load i8, ptr %47, align 1, !tbaa !22
  %49 = call noundef nonnull align 1 dereferenceable(1) ptr @_ZNSt5arrayIhLm6EEixEm(ptr noundef nonnull align 1 dereferenceable(6) %5, i64 noundef 5) #13
  store i8 %48, ptr %49, align 1, !tbaa !22
  call void @llvm.lifetime.start.p0(i64 8, ptr %6) #13
  call void @llvm.lifetime.start.p0(i64 16, ptr %8) #13
  %50 = call { ptr, ptr } @_ZN5folly5rangeIhLm6EEENS_5RangeIPT_EERSt5arrayIS2_XT0_EE(ptr noundef nonnull align 1 dereferenceable(6) %5)
  %51 = getelementptr inbounds nuw { ptr, ptr }, ptr %8, i32 0, i32 0
  %52 = extractvalue { ptr, ptr } %50, 0
  store ptr %52, ptr %51, align 8
  %53 = getelementptr inbounds nuw { ptr, ptr }, ptr %8, i32 0, i32 1
  %54 = extractvalue { ptr, ptr } %50, 1
  store ptr %54, ptr %53, align 8
  call void @_ZN5folly5RangeIPKhEC2IPhTnNSt9enable_ifIXaantsr3std7is_sameIS2_T_EE5valuesr3std14is_convertibleIS7_S2_EE5valueEiE4typeELi0EEERKNS0_IS7_EE(ptr noundef nonnull align 8 dereferenceable(16) %7, ptr noundef nonnull align 8 dereferenceable(16) %8)
  %55 = getelementptr inbounds nuw { ptr, ptr }, ptr %7, i32 0, i32 0
  %56 = load ptr, ptr %55, align 8
  %57 = getelementptr inbounds nuw { ptr, ptr }, ptr %7, i32 0, i32 1
  %58 = load ptr, ptr %57, align 8
  %59 = call i64 @_ZN5folly10MacAddress10fromBinaryENS_5RangeIPKhEE(ptr %56, ptr %58)
  %60 = getelementptr inbounds nuw %"class.folly::MacAddress", ptr %6, i32 0, i32 0
  store i64 %59, ptr %60, align 1
  call void @_ZN5folly8OptionalINS_10MacAddressEEC2EOS1_(ptr noundef nonnull align 1 dereferenceable(9) %0, ptr noundef nonnull align 1 dereferenceable(8) %6) #13
  call void @llvm.lifetime.end.p0(i64 16, ptr %8) #13
  call void @llvm.lifetime.end.p0(i64 8, ptr %6) #13
  call void @llvm.lifetime.end.p0(i64 6, ptr %5) #13
  br label %61

61:                                               ; preds = %22, %21
  ret void
}