; Function Attrs: mustprogress uwtable
define void @_ZNK5folly11IPAddressV622getMacAddressFromEUI64Ev(ptr dead_on_unwind noalias writable writeonly sret(%"class.folly::Optional") align 1 captures(none) initializes((0, 1), (8, 9)) %0, ptr noundef nonnull readonly align 4 captures(none) dereferenceable(18) %1) local_unnamed_addr #0 align 2 personality ptr @__gxx_personality_v0 {
  %3 = alloca %"class.folly::MacAddress", align 8
  %4 = alloca %"struct.std::array.10", align 1
  %5 = getelementptr inbounds nuw i8, ptr %1, i64 11
  %6 = load i8, ptr %5, align 1, !tbaa !9
  %7 = icmp eq i8 %6, -1
  %8 = getelementptr inbounds nuw i8, ptr %1, i64 12
  %9 = load i8, ptr %8, align 4
  %10 = icmp eq i8 %9, -2
  %or.cond = select i1 %7, i1 %10, i1 false
  br i1 %or.cond, label %13, label %11

11:                                               ; preds = %2
  store i8 0, ptr %0, align 1, !tbaa !9
  %12 = getelementptr inbounds nuw i8, ptr %0, i64 8
  store i8 0, ptr %12, align 1, !tbaa !73
  br label %35

13:                                               ; preds = %2
  call void @llvm.lifetime.start.p0(i64 6, ptr nonnull %4) #37
  %14 = getelementptr inbounds nuw i8, ptr %1, i64 8
  %15 = load i8, ptr %14, align 4, !tbaa !9
  %16 = xor i8 %15, 2
  store i8 %16, ptr %4, align 1, !tbaa !9
  %17 = getelementptr inbounds nuw i8, ptr %1, i64 9
  %18 = load i8, ptr %17, align 1, !tbaa !9
  %19 = getelementptr inbounds nuw i8, ptr %4, i64 1
  store i8 %18, ptr %19, align 1, !tbaa !9
  %20 = getelementptr inbounds nuw i8, ptr %1, i64 10
  %21 = load i8, ptr %20, align 2, !tbaa !9
  %22 = getelementptr inbounds nuw i8, ptr %4, i64 2
  store i8 %21, ptr %22, align 1, !tbaa !9
  %23 = getelementptr inbounds nuw i8, ptr %1, i64 13
  %24 = load i8, ptr %23, align 1, !tbaa !9
  %25 = getelementptr inbounds nuw i8, ptr %4, i64 3
  store i8 %24, ptr %25, align 1, !tbaa !9
  %26 = getelementptr inbounds nuw i8, ptr %1, i64 14
  %27 = load i8, ptr %26, align 2, !tbaa !9
  %28 = getelementptr inbounds nuw i8, ptr %4, i64 4
  store i8 %27, ptr %28, align 1, !tbaa !9
  %29 = getelementptr inbounds nuw i8, ptr %1, i64 15
  %30 = load i8, ptr %29, align 1, !tbaa !9
  %31 = getelementptr inbounds nuw i8, ptr %4, i64 5
  store i8 %30, ptr %31, align 1, !tbaa !9
  %32 = getelementptr inbounds nuw i8, ptr %4, i64 6
  call void @llvm.lifetime.start.p0(i64 8, ptr nonnull %3)
  store i64 0, ptr %3, align 8
  call void @_ZN5folly10MacAddress13setFromBinaryENS_5RangeIPKhEE(ptr noundef nonnull align 1 dereferenceable(8) %3, ptr nonnull %4, ptr nonnull %32)
  %33 = load i64, ptr %3, align 8
  call void @llvm.lifetime.end.p0(i64 8, ptr nonnull %3)
  %34 = getelementptr inbounds nuw i8, ptr %0, i64 8
  store i64 %33, ptr %0, align 1, !tbaa !9
  store i8 1, ptr %34, align 1, !tbaa !78
  call void @llvm.lifetime.end.p0(i64 6, ptr nonnull %4) #37
  br label %35

35:                                               ; preds = %13, %11
  ret void
}